target datalayout = "e-m:e-p270:32:32-p271:32:32-p272:64:64-i64:64-i128:128-f80:128-n8:16:32:64-S128"
target triple = "x86_64-pc-linux-gnu"

%struct._zval_struct = type { %union._zend_value, %union.anon, %union.anon.2 }
%union._zend_value = type { i64 }
%union.anon = type { i32 }
%union.anon.2 = type { i32 }
%struct._zend_refcounted_h = type { i32, %union.anon.3 }
%union.anon.3 = type { i32 }
%struct._php_json_parser_methods = type { ptr, ptr, ptr, ptr, ptr, ptr, ptr, ptr }
%struct._php_json_parser = type { %struct._php_json_scanner, ptr, i32, i32, %struct._php_json_parser_methods }
%struct._php_json_scanner = type { ptr, ptr, ptr, ptr, ptr, ptr, ptr, %struct._zval_struct, i32, i32, i32, i32, i32, i32 }
%struct.anon.0 = type { i8, i8, %union.anon.1 }
%union.anon.1 = type { i16 }
%struct._zend_string = type { %struct._zend_refcounted_h, i64, i64, [1 x i8] }

; Function Attrs: nounwind uwtable
define internal i32 @php_json_parser_object_update(ptr noundef %0, ptr noundef %1, ptr noundef %2, ptr noundef %3) #0 {
  %5 = alloca i32, align 4
  %6 = alloca i32, align 4
  %7 = alloca i1, align 1
  %8 = alloca ptr, align 8
  %9 = alloca i64, align 8
  %10 = alloca ptr, align 8
  %11 = alloca ptr, align 8
  %12 = alloca ptr, align 8
  %13 = alloca ptr, align 8
  %14 = alloca i8, align 1
  %15 = alloca ptr, align 8
  %16 = alloca ptr, align 8
  %17 = alloca i8, align 1
  %18 = alloca ptr, align 8
  %19 = alloca ptr, align 8
  %20 = alloca ptr, align 8
  %21 = alloca ptr, align 8
  %22 = alloca i64, align 8
  %23 = alloca ptr, align 8
  %24 = alloca ptr, align 8
  %25 = alloca ptr, align 8
  %26 = alloca ptr, align 8
  %27 = alloca ptr, align 8
  %28 = alloca ptr, align 8
  %29 = alloca ptr, align 8
  %30 = alloca ptr, align 8
  %31 = alloca ptr, align 8
  %32 = alloca i32, align 4
  %33 = alloca ptr, align 8
  %34 = alloca ptr, align 8
  %35 = alloca ptr, align 8
  %36 = alloca ptr, align 8
  store ptr %0, ptr %33, align 8
  store ptr %1, ptr %34, align 8
  store ptr %2, ptr %35, align 8
  store ptr %3, ptr %36, align 8
  %37 = load ptr, ptr %34, align 8
  store ptr %37, ptr %23, align 8
  %38 = load ptr, ptr %23, align 8
  %39 = getelementptr inbounds %struct._zval_struct, ptr %38, i32 0, i32 1
  %40 = load i8, ptr %39, align 8
  %41 = zext i8 %40 to i32
  %42 = icmp eq i32 %41, 7
  br i1 %42, label %43, label %103

43:                                               ; preds = %4
  %44 = load ptr, ptr %34, align 8
  %45 = getelementptr inbounds %struct._zval_struct, ptr %44, i32 0, i32 0
  %46 = load ptr, ptr %45, align 8
  %47 = load ptr, ptr %35, align 8
  %48 = load ptr, ptr %36, align 8
  store ptr %46, ptr %19, align 8
  store ptr %47, ptr %20, align 8
  store ptr %48, ptr %21, align 8
  %49 = load ptr, ptr %20, align 8
  %50 = getelementptr inbounds %struct._zend_string, ptr %49, i32 0, i32 3
  %51 = load ptr, ptr %20, align 8
  %52 = getelementptr inbounds %struct._zend_string, ptr %51, i32 0, i32 2
  %53 = load i64, ptr %52, align 8
  store ptr %50, ptr %8, align 8
  store i64 %53, ptr %9, align 8
  store ptr %22, ptr %10, align 8
  %54 = load ptr, ptr %8, align 8
  store ptr %54, ptr %11, align 8
  %55 = load ptr, ptr %11, align 8
  %56 = load i8, ptr %55, align 1
  %57 = sext i8 %56 to i32
  %58 = icmp sgt i32 %57, 57
  br i1 %58, label %59, label %60

59:                                               ; preds = %43
  store i1 false, ptr %7, align 1
  br label %90

60:                                               ; preds = %43
  %61 = load ptr, ptr %11, align 8
  %62 = load i8, ptr %61, align 1
  %63 = sext i8 %62 to i32
  %64 = icmp slt i32 %63, 48
  br i1 %64, label %65, label %85

65:                                               ; preds = %60
  %66 = load ptr, ptr %11, align 8
  %67 = load i8, ptr %66, align 1
  %68 = sext i8 %67 to i32
  %69 = icmp ne i32 %68, 45
  br i1 %69, label %70, label %71

70:                                               ; preds = %65
  store i1 false, ptr %7, align 1
  br label %90

71:                                               ; preds = %65
  %72 = load ptr, ptr %11, align 8
  %73 = getelementptr inbounds i8, ptr %72, i32 1
  store ptr %73, ptr %11, align 8
  %74 = load ptr, ptr %11, align 8
  %75 = load i8, ptr %74, align 1
  %76 = sext i8 %75 to i32
  %77 = icmp sgt i32 %76, 57
  br i1 %77, label %83, label %78

78:                                               ; preds = %71
  %79 = load ptr, ptr %11, align 8
  %80 = load i8, ptr %79, align 1
  %81 = sext i8 %80 to i32
  %82 = icmp slt i32 %81, 48
  br i1 %82, label %83, label %84

83:                                               ; preds = %78, %71
  store i1 false, ptr %7, align 1
  br label %90

84:                                               ; preds = %78
  br label %85

85:                                               ; preds = %84, %60
  %86 = load ptr, ptr %8, align 8
  %87 = load i64, ptr %9, align 8
  %88 = load ptr, ptr %10, align 8
  %89 = call zeroext i1 @_zend_handle_numeric_str_ex(ptr noundef %86, i64 noundef %87, ptr noundef %88) #8
  store i1 %89, ptr %7, align 1
  br label %90

90:                                               ; preds = %85, %83, %70, %59
  %91 = load i1, ptr %7, align 1
  br i1 %91, label %92, label %97

92:                                               ; preds = %90
  %93 = load ptr, ptr %19, align 8
  %94 = load i64, ptr %22, align 8
  %95 = load ptr, ptr %21, align 8
  %96 = call ptr @zend_hash_index_update(ptr noundef %93, i64 noundef %94, ptr noundef %95) #8
  store ptr %96, ptr %18, align 8
  br label %102

97:                                               ; preds = %90
  %98 = load ptr, ptr %19, align 8
  %99 = load ptr, ptr %20, align 8
  %100 = load ptr, ptr %21, align 8
  %101 = call ptr @zend_hash_update(ptr noundef %98, ptr noundef %99, ptr noundef %100) #8
  store ptr %101, ptr %18, align 8
  br label %102

102:                                              ; preds = %97, %92
  br label %234

103:                                              ; preds = %4
  %104 = load ptr, ptr %35, align 8
  %105 = getelementptr inbounds %struct._zend_string, ptr %104, i32 0, i32 2
  %106 = load i64, ptr %105, align 8
  %107 = icmp ugt i64 %106, 0
  br i1 %107, label %108, label %202

108:                                              ; preds = %103
  %109 = load ptr, ptr %35, align 8
  %110 = getelementptr inbounds %struct._zend_string, ptr %109, i32 0, i32 3
  %111 = getelementptr inbounds [1 x i8], ptr %110, i64 0, i64 0
  %112 = load i8, ptr %111, align 8
  %113 = sext i8 %112 to i32
  %114 = icmp eq i32 %113, 0
  br i1 %114, label %115, label %202

115:                                              ; preds = %108
  %116 = load ptr, ptr %33, align 8
  %117 = getelementptr inbounds %struct._php_json_parser, ptr %116, i32 0, i32 0
  %118 = getelementptr inbounds %struct._php_json_scanner, ptr %117, i32 0, i32 11
  store i32 9, ptr %118, align 4
  %119 = load ptr, ptr %35, align 8
  store ptr %119, ptr %13, align 8
  store i8 0, ptr %14, align 1
  %120 = load ptr, ptr %13, align 8
  %121 = getelementptr inbounds %struct._zend_refcounted_h, ptr %120, i32 0, i32 1
  %122 = load i32, ptr %121, align 4
  store i32 %122, ptr %6, align 4
  %123 = load i32, ptr %6, align 4
  %124 = and i32 %123, 1008
  %125 = and i32 %124, 64
  %126 = icmp ne i32 %125, 0
  br i1 %126, label %145, label %127

127:                                              ; preds = %115
  %128 = load ptr, ptr %13, align 8
  store ptr %128, ptr %12, align 8
  %129 = load ptr, ptr %12, align 8
  %130 = load i32, ptr %129, align 4
  %131 = icmp ugt i32 %130, 0
  call void @llvm.assume(i1 %131)
  %132 = load ptr, ptr %12, align 8
  %133 = load i32, ptr %132, align 4
  %134 = add i32 %133, -1
  store i32 %134, ptr %132, align 4
  %135 = icmp eq i32 %134, 0
  br i1 %135, label %136, label %144

136:                                              ; preds = %127
  %137 = load i8, ptr %14, align 1
  %138 = trunc i8 %137 to i1
  br i1 %138, label %139, label %141

139:                                              ; preds = %136
  %140 = load ptr, ptr %13, align 8
  call void @free(ptr noundef %140) #8
  br label %143

141:                                              ; preds = %136
  %142 = load ptr, ptr %13, align 8
  call void @_efree(ptr noundef %142) #8
  br label %143

143:                                              ; preds = %141, %139
  br label %144

144:                                              ; preds = %143, %127
  br label %145

145:                                              ; preds = %144, %115
  %146 = load ptr, ptr %36, align 8
  store ptr %146, ptr %30, align 8
  %147 = load ptr, ptr %30, align 8
  %148 = getelementptr inbounds %struct._zval_struct, ptr %147, i32 0, i32 1
  %149 = getelementptr inbounds %struct.anon.0, ptr %148, i32 0, i32 1
  %150 = load i8, ptr %149, align 1
  %151 = zext i8 %150 to i32
  %152 = icmp ne i32 %151, 0
  br i1 %152, label %153, label %173

153:                                              ; preds = %145
  %154 = load ptr, ptr %30, align 8
  store ptr %154, ptr %29, align 8
  %155 = load ptr, ptr %29, align 8
  %156 = getelementptr inbounds %struct._zval_struct, ptr %155, i32 0, i32 1
  %157 = getelementptr inbounds %struct.anon.0, ptr %156, i32 0, i32 1
  %158 = load i8, ptr %157, align 1
  %159 = zext i8 %158 to i32
  %160 = icmp ne i32 %159, 0
  call void @llvm.assume(i1 %160)
  %161 = load ptr, ptr %29, align 8
  %162 = load ptr, ptr %161, align 8
  store ptr %162, ptr %24, align 8
  %163 = load ptr, ptr %24, align 8
  %164 = load i32, ptr %163, align 4
  %165 = icmp ugt i32 %164, 0
  call void @llvm.assume(i1 %165)
  %166 = load ptr, ptr %24, align 8
  %167 = load i32, ptr %166, align 4
  %168 = add i32 %167, -1
  store i32 %168, ptr %166, align 4
  %169 = icmp ne i32 %168, 0
  br i1 %169, label %173, label %170

170:                                              ; preds = %153
  %171 = load ptr, ptr %30, align 8
  %172 = load ptr, ptr %171, align 8
  call void @rc_dtor_func(ptr noundef %172) #8
  br label %173

173:                                              ; preds = %170, %153, %145
  %174 = load ptr, ptr %34, align 8
  store ptr %174, ptr %31, align 8
  %175 = load ptr, ptr %31, align 8
  %176 = getelementptr inbounds %struct._zval_struct, ptr %175, i32 0, i32 1
  %177 = getelementptr inbounds %struct.anon.0, ptr %176, i32 0, i32 1
  %178 = load i8, ptr %177, align 1
  %179 = zext i8 %178 to i32
  %180 = icmp ne i32 %179, 0
  br i1 %180, label %181, label %201

181:                                              ; preds = %173
  %182 = load ptr, ptr %31, align 8
  store ptr %182, ptr %28, align 8
  %183 = load ptr, ptr %28, align 8
  %184 = getelementptr inbounds %struct._zval_struct, ptr %183, i32 0, i32 1
  %185 = getelementptr inbounds %struct.anon.0, ptr %184, i32 0, i32 1
  %186 = load i8, ptr %185, align 1
  %187 = zext i8 %186 to i32
  %188 = icmp ne i32 %187, 0
  call void @llvm.assume(i1 %188)
  %189 = load ptr, ptr %28, align 8
  %190 = load ptr, ptr %189, align 8
  store ptr %190, ptr %25, align 8
  %191 = load ptr, ptr %25, align 8
  %192 = load i32, ptr %191, align 4
  %193 = icmp ugt i32 %192, 0
  call void @llvm.assume(i1 %193)
  %194 = load ptr, ptr %25, align 8
  %195 = load i32, ptr %194, align 4
  %196 = add i32 %195, -1
  store i32 %196, ptr %194, align 4
  %197 = icmp ne i32 %196, 0
  br i1 %197, label %201, label %198

198:                                              ; preds = %181
  %199 = load ptr, ptr %31, align 8
  %200 = load ptr, ptr %199, align 8
  call void @rc_dtor_func(ptr noundef %200) #8
  br label %201

201:                                              ; preds = %198, %181, %173
  store i32 -1, ptr %32, align 4
  br label %262

202:                                              ; preds = %108, %103
  %203 = load ptr, ptr %34, align 8
  %204 = getelementptr inbounds %struct._zval_struct, ptr %203, i32 0, i32 0
  %205 = load ptr, ptr %204, align 8
  %206 = load ptr, ptr %35, align 8
  %207 = load ptr, ptr %36, align 8
  %208 = call ptr @zend_std_write_property(ptr noundef %205, ptr noundef %206, ptr noundef %207, ptr noundef null)
  br label %209

209:                                              ; preds = %202
  %210 = load ptr, ptr %36, align 8
  %211 = getelementptr inbounds %struct._zval_struct, ptr %210, i32 0, i32 1
  %212 = getelementptr inbounds %struct.anon.0, ptr %211, i32 0, i32 1
  %213 = load i8, ptr %212, align 1
  %214 = zext i8 %213 to i32
  %215 = icmp ne i32 %214, 0
  br i1 %215, label %216, label %232

216:                                              ; preds = %209
  %217 = load ptr, ptr %36, align 8
  store ptr %217, ptr %27, align 8
  %218 = load ptr, ptr %27, align 8
  %219 = getelementptr inbounds %struct._zval_struct, ptr %218, i32 0, i32 1
  %220 = getelementptr inbounds %struct.anon.0, ptr %219, i32 0, i32 1
  %221 = load i8, ptr %220, align 1
  %222 = zext i8 %221 to i32
  %223 = icmp ne i32 %222, 0
  call void @llvm.assume(i1 %223)
  %224 = load ptr, ptr %27, align 8
  %225 = load ptr, ptr %224, align 8
  store ptr %225, ptr %26, align 8
  %226 = load ptr, ptr %26, align 8
  %227 = load i32, ptr %226, align 4
  %228 = icmp ugt i32 %227, 0
  call void @llvm.assume(i1 %228)
  %229 = load ptr, ptr %26, align 8
  %230 = load i32, ptr %229, align 4
  %231 = add i32 %230, -1
  store i32 %231, ptr %229, align 4
  br label %232

232:                                              ; preds = %216, %209
  br label %233

233:                                              ; preds = %232
  br label %234

234:                                              ; preds = %233, %102
  %235 = load ptr, ptr %35, align 8
  store ptr %235, ptr %16, align 8
  store i8 0, ptr %17, align 1
  %236 = load ptr, ptr %16, align 8
  %237 = getelementptr inbounds %struct._zend_refcounted_h, ptr %236, i32 0, i32 1
  %238 = load i32, ptr %237, align 4
  store i32 %238, ptr %5, align 4
  %239 = load i32, ptr %5, align 4
  %240 = and i32 %239, 1008
  %241 = and i32 %240, 64
  %242 = icmp ne i32 %241, 0
  br i1 %242, label %261, label %243

243:                                              ; preds = %234
  %244 = load ptr, ptr %16, align 8
  store ptr %244, ptr %15, align 8
  %245 = load ptr, ptr %15, align 8
  %246 = load i32, ptr %245, align 4
  %247 = icmp ugt i32 %246, 0
  call void @llvm.assume(i1 %247)
  %248 = load ptr, ptr %15, align 8
  %249 = load i32, ptr %248, align 4
  %250 = add i32 %249, -1
  store i32 %250, ptr %248, align 4
  %251 = icmp eq i32 %250, 0
  br i1 %251, label %252, label %260

252:                                              ; preds = %243
  %253 = load i8, ptr %17, align 1
  %254 = trunc i8 %253 to i1
  br i1 %254, label %255, label %257

255:                                              ; preds = %252
  %256 = load ptr, ptr %16, align 8
  call void @free(ptr noundef %256) #8
  br label %259

257:                                              ; preds = %252
  %258 = load ptr, ptr %16, align 8
  call void @_efree(ptr noundef %258) #8
  br label %259

259:                                              ; preds = %257, %255
  br label %260

260:                                              ; preds = %259, %243
  br label %261

261:                                              ; preds = %260, %234
  store i32 0, ptr %32, align 4
  br label %262

262:                                              ; preds = %261, %201
  %263 = load i32, ptr %32, align 4
  ret i32 %263
}