; Function Attrs: nounwind uwtable
define internal noundef i32 @php_json_parser_object_update(ptr nocapture noundef writeonly %0, ptr nocapture noundef readonly %1, ptr noundef %2, ptr noundef %3) #0 {
  %5 = alloca i64, align 8
  %6 = getelementptr inbounds i8, ptr %1, i64 8
  %7 = load i8, ptr %6, align 8
  %8 = icmp eq i8 %7, 7
  br i1 %8, label %9, label %29

9:                                                ; preds = %4
  %10 = load ptr, ptr %1, align 8
  %11 = getelementptr inbounds i8, ptr %2, i64 24
  %12 = getelementptr inbounds i8, ptr %2, i64 16
  %13 = load i64, ptr %12, align 8
  %14 = load i8, ptr %11, align 1
  %15 = icmp sgt i8 %14, 57
  br i1 %15, label %.critedge, label %16

16:                                               ; preds = %9
  %17 = icmp slt i8 %14, 48
  br i1 %17, label %18, label %23

18:                                               ; preds = %16
  %.not78 = icmp eq i8 %14, 45
  br i1 %.not78, label %19, label %.critedge

19:                                               ; preds = %18
  %20 = getelementptr inbounds i8, ptr %2, i64 25
  %21 = load i8, ptr %20, align 1
  %22 = add i8 %21, -58
  %or.cond = icmp ult i8 %22, -10
  br i1 %or.cond, label %.critedge, label %23

23:                                               ; preds = %19, %16
  %24 = call zeroext i1 @_zend_handle_numeric_str_ex(ptr noundef nonnull %11, i64 noundef %13, ptr noundef nonnull %5) #12
  br i1 %24, label %25, label %.critedge

25:                                               ; preds = %23
  %26 = load i64, ptr %5, align 8
  %27 = call ptr @zend_hash_index_update(ptr noundef %10, i64 noundef %26, ptr noundef %3) #12
  br label %77

.critedge:                                        ; preds = %9, %18, %19, %23
  %28 = call ptr @zend_hash_update(ptr noundef %10, ptr noundef nonnull %2, ptr noundef %3) #12
  br label %77

29:                                               ; preds = %4
  %30 = getelementptr inbounds i8, ptr %2, i64 16
  %31 = load i64, ptr %30, align 8
  %.not = icmp eq i64 %31, 0
  br i1 %.not, label %67, label %32

32:                                               ; preds = %29
  %33 = getelementptr inbounds i8, ptr %2, i64 24
  %34 = load i8, ptr %33, align 8
  %35 = icmp eq i8 %34, 0
  br i1 %35, label %36, label %67

36:                                               ; preds = %32
  %37 = getelementptr inbounds i8, ptr %0, i64 84
  store i32 9, ptr %37, align 4
  %38 = getelementptr inbounds i8, ptr %2, i64 4
  %39 = load i32, ptr %38, align 4
  %40 = and i32 %39, 64
  %.not73 = icmp eq i32 %40, 0
  br i1 %.not73, label %41, label %47

41:                                               ; preds = %36
  %42 = load i32, ptr %2, align 4
  %43 = icmp ne i32 %42, 0
  tail call void @llvm.assume(i1 %43)
  %44 = add i32 %42, -1
  store i32 %44, ptr %2, align 4
  %45 = icmp eq i32 %44, 0
  br i1 %45, label %46, label %47

46:                                               ; preds = %41
  tail call void @_efree(ptr noundef nonnull %2) #12
  br label %47

47:                                               ; preds = %41, %46, %36
  %48 = getelementptr inbounds i8, ptr %3, i64 9
  %49 = load i8, ptr %48, align 1
  %.not74 = icmp eq i8 %49, 0
  br i1 %.not74, label %57, label %50

50:                                               ; preds = %47
  %51 = load ptr, ptr %3, align 8
  %52 = load i32, ptr %51, align 4
  %53 = icmp ne i32 %52, 0
  tail call void @llvm.assume(i1 %53)
  %54 = add i32 %52, -1
  store i32 %54, ptr %51, align 4
  %.not75 = icmp eq i32 %54, 0
  br i1 %.not75, label %55, label %57

55:                                               ; preds = %50
  %56 = load ptr, ptr %3, align 8
  tail call void @rc_dtor_func(ptr noundef %56) #12
  br label %57

57:                                               ; preds = %55, %50, %47
  %58 = getelementptr inbounds i8, ptr %1, i64 9
  %59 = load i8, ptr %58, align 1
  %.not76 = icmp eq i8 %59, 0
  br i1 %.not76, label %87, label %60

60:                                               ; preds = %57
  %61 = load ptr, ptr %1, align 8
  %62 = load i32, ptr %61, align 4
  %63 = icmp ne i32 %62, 0
  tail call void @llvm.assume(i1 %63)
  %64 = add i32 %62, -1
  store i32 %64, ptr %61, align 4
  %.not77 = icmp eq i32 %64, 0
  br i1 %.not77, label %65, label %87

65:                                               ; preds = %60
  %66 = load ptr, ptr %1, align 8
  tail call void @rc_dtor_func(ptr noundef %66) #12
  br label %87

67:                                               ; preds = %32, %29
  %68 = load ptr, ptr %1, align 8
  %69 = tail call ptr @zend_std_write_property(ptr noundef %68, ptr noundef nonnull %2, ptr noundef %3, ptr noundef null) #12
  %70 = getelementptr inbounds i8, ptr %3, i64 9
  %71 = load i8, ptr %70, align 1
  %.not72 = icmp eq i8 %71, 0
  br i1 %.not72, label %77, label %72

72:                                               ; preds = %67
  %73 = load ptr, ptr %3, align 8
  %74 = load i32, ptr %73, align 4
  %75 = icmp ne i32 %74, 0
  tail call void @llvm.assume(i1 %75)
  %76 = add i32 %74, -1
  store i32 %76, ptr %73, align 4
  br label %77

77:                                               ; preds = %72, %67, %25, %.critedge
  %78 = getelementptr inbounds i8, ptr %2, i64 4
  %79 = load i32, ptr %78, align 4
  %80 = and i32 %79, 64
  %.not79 = icmp eq i32 %80, 0
  br i1 %.not79, label %81, label %87

81:                                               ; preds = %77
  %82 = load i32, ptr %2, align 4
  %83 = icmp ne i32 %82, 0
  call void @llvm.assume(i1 %83)
  %84 = add i32 %82, -1
  store i32 %84, ptr %2, align 4
  %85 = icmp eq i32 %84, 0
  br i1 %85, label %86, label %87

86:                                               ; preds = %81
  call void @_efree(ptr noundef nonnull %2) #12
  br label %87

87:                                               ; preds = %77, %86, %81, %57, %60, %65
  %.069 = phi i32 [ -1, %65 ], [ -1, %60 ], [ -1, %57 ], [ 0, %81 ], [ 0, %86 ], [ 0, %77 ]
  ret i32 %.069
}